
magic:     file format elf64-x86-64


Disassembly of section .init:

0000000000001000 <.init>:
    1000:	f3 0f 1e fa          	endbr64 
    1004:	48 83 ec 08          	sub    rsp,0x8
    1008:	48 8b 05 d9 2f 00 00 	mov    rax,QWORD PTR [rip+0x2fd9]        # 3fe8 <atoi@plt+0x2e98>
    100f:	48 85 c0             	test   rax,rax
    1012:	74 02                	je     1016 <__cxa_finalize@plt-0xaa>
    1014:	ff d0                	call   rax
    1016:	48 83 c4 08          	add    rsp,0x8
    101a:	c3                   	ret    

Disassembly of section .plt:

0000000000001020 <.plt>:
    1020:	ff 35 5a 2f 00 00    	push   QWORD PTR [rip+0x2f5a]        # 3f80 <atoi@plt+0x2e30>
    1026:	f2 ff 25 5b 2f 00 00 	bnd jmp QWORD PTR [rip+0x2f5b]        # 3f88 <atoi@plt+0x2e38>
    102d:	0f 1f 00             	nop    DWORD PTR [rax]
    1030:	f3 0f 1e fa          	endbr64 
    1034:	68 00 00 00 00       	push   0x0
    1039:	f2 e9 e1 ff ff ff    	bnd jmp 1020 <__cxa_finalize@plt-0xa0>
    103f:	90                   	nop
    1040:	f3 0f 1e fa          	endbr64 
    1044:	68 01 00 00 00       	push   0x1
    1049:	f2 e9 d1 ff ff ff    	bnd jmp 1020 <__cxa_finalize@plt-0xa0>
    104f:	90                   	nop
    1050:	f3 0f 1e fa          	endbr64 
    1054:	68 02 00 00 00       	push   0x2
    1059:	f2 e9 c1 ff ff ff    	bnd jmp 1020 <__cxa_finalize@plt-0xa0>
    105f:	90                   	nop
    1060:	f3 0f 1e fa          	endbr64 
    1064:	68 03 00 00 00       	push   0x3
    1069:	f2 e9 b1 ff ff ff    	bnd jmp 1020 <__cxa_finalize@plt-0xa0>
    106f:	90                   	nop
    1070:	f3 0f 1e fa          	endbr64 
    1074:	68 04 00 00 00       	push   0x4
    1079:	f2 e9 a1 ff ff ff    	bnd jmp 1020 <__cxa_finalize@plt-0xa0>
    107f:	90                   	nop
    1080:	f3 0f 1e fa          	endbr64 
    1084:	68 05 00 00 00       	push   0x5
    1089:	f2 e9 91 ff ff ff    	bnd jmp 1020 <__cxa_finalize@plt-0xa0>
    108f:	90                   	nop
    1090:	f3 0f 1e fa          	endbr64 
    1094:	68 06 00 00 00       	push   0x6
    1099:	f2 e9 81 ff ff ff    	bnd jmp 1020 <__cxa_finalize@plt-0xa0>
    109f:	90                   	nop
    10a0:	f3 0f 1e fa          	endbr64 
    10a4:	68 07 00 00 00       	push   0x7
    10a9:	f2 e9 71 ff ff ff    	bnd jmp 1020 <__cxa_finalize@plt-0xa0>
    10af:	90                   	nop
    10b0:	f3 0f 1e fa          	endbr64 
    10b4:	68 08 00 00 00       	push   0x8
    10b9:	f2 e9 61 ff ff ff    	bnd jmp 1020 <__cxa_finalize@plt-0xa0>
    10bf:	90                   	nop

Disassembly of section .plt.got:

00000000000010c0 <__cxa_finalize@plt>:
    10c0:	f3 0f 1e fa          	endbr64 
    10c4:	f2 ff 25 2d 2f 00 00 	bnd jmp QWORD PTR [rip+0x2f2d]        # 3ff8 <atoi@plt+0x2ea8>
    10cb:	0f 1f 44 00 00       	nop    DWORD PTR [rax+rax*1+0x0]

Disassembly of section .plt.sec:

00000000000010d0 <putchar@plt>:
    10d0:	f3 0f 1e fa          	endbr64 
    10d4:	f2 ff 25 b5 2e 00 00 	bnd jmp QWORD PTR [rip+0x2eb5]        # 3f90 <atoi@plt+0x2e40>
    10db:	0f 1f 44 00 00       	nop    DWORD PTR [rax+rax*1+0x0]

00000000000010e0 <puts@plt>:
    10e0:	f3 0f 1e fa          	endbr64 
    10e4:	f2 ff 25 ad 2e 00 00 	bnd jmp QWORD PTR [rip+0x2ead]        # 3f98 <atoi@plt+0x2e48>
    10eb:	0f 1f 44 00 00       	nop    DWORD PTR [rax+rax*1+0x0]

00000000000010f0 <__stack_chk_fail@plt>:
    10f0:	f3 0f 1e fa          	endbr64 
    10f4:	f2 ff 25 a5 2e 00 00 	bnd jmp QWORD PTR [rip+0x2ea5]        # 3fa0 <atoi@plt+0x2e50>
    10fb:	0f 1f 44 00 00       	nop    DWORD PTR [rax+rax*1+0x0]

0000000000001100 <printf@plt>:
    1100:	f3 0f 1e fa          	endbr64 
    1104:	f2 ff 25 9d 2e 00 00 	bnd jmp QWORD PTR [rip+0x2e9d]        # 3fa8 <atoi@plt+0x2e58>
    110b:	0f 1f 44 00 00       	nop    DWORD PTR [rax+rax*1+0x0]

0000000000001110 <alarm@plt>:
    1110:	f3 0f 1e fa          	endbr64 
    1114:	f2 ff 25 95 2e 00 00 	bnd jmp QWORD PTR [rip+0x2e95]        # 3fb0 <atoi@plt+0x2e60>
    111b:	0f 1f 44 00 00       	nop    DWORD PTR [rax+rax*1+0x0]

0000000000001120 <read@plt>:
    1120:	f3 0f 1e fa          	endbr64 
    1124:	f2 ff 25 8d 2e 00 00 	bnd jmp QWORD PTR [rip+0x2e8d]        # 3fb8 <atoi@plt+0x2e68>
    112b:	0f 1f 44 00 00       	nop    DWORD PTR [rax+rax*1+0x0]

0000000000001130 <setvbuf@plt>:
    1130:	f3 0f 1e fa          	endbr64 
    1134:	f2 ff 25 85 2e 00 00 	bnd jmp QWORD PTR [rip+0x2e85]        # 3fc0 <atoi@plt+0x2e70>
    113b:	0f 1f 44 00 00       	nop    DWORD PTR [rax+rax*1+0x0]

0000000000001140 <open@plt>:
    1140:	f3 0f 1e fa          	endbr64 
    1144:	f2 ff 25 7d 2e 00 00 	bnd jmp QWORD PTR [rip+0x2e7d]        # 3fc8 <atoi@plt+0x2e78>
    114b:	0f 1f 44 00 00       	nop    DWORD PTR [rax+rax*1+0x0]

0000000000001150 <atoi@plt>:
    1150:	f3 0f 1e fa          	endbr64 
    1154:	f2 ff 25 75 2e 00 00 	bnd jmp QWORD PTR [rip+0x2e75]        # 3fd0 <atoi@plt+0x2e80>
    115b:	0f 1f 44 00 00       	nop    DWORD PTR [rax+rax*1+0x0]

Disassembly of section .text:

0000000000001160 <.text>:
    1160:	f3 0f 1e fa          	endbr64 
    1164:	31 ed                	xor    ebp,ebp
    1166:	49 89 d1             	mov    r9,rdx
    1169:	5e                   	pop    rsi
    116a:	48 89 e2             	mov    rdx,rsp
    116d:	48 83 e4 f0          	and    rsp,0xfffffffffffffff0
    1171:	50                   	push   rax
    1172:	54                   	push   rsp
    1173:	45 31 c0             	xor    r8d,r8d
    1176:	31 c9                	xor    ecx,ecx
    1178:	48 8d 3d e5 03 00 00 	lea    rdi,[rip+0x3e5]        # 1564 <atoi@plt+0x414>
    117f:	ff 15 53 2e 00 00    	call   QWORD PTR [rip+0x2e53]        # 3fd8 <atoi@plt+0x2e88>
    1185:	f4                   	hlt    
    1186:	66 2e 0f 1f 84 00 00 	cs nop WORD PTR [rax+rax*1+0x0]
    118d:	00 00 00 
    1190:	48 8d 3d 79 2e 00 00 	lea    rdi,[rip+0x2e79]        # 4010 <atoi@plt+0x2ec0>
    1197:	48 8d 05 72 2e 00 00 	lea    rax,[rip+0x2e72]        # 4010 <atoi@plt+0x2ec0>
    119e:	48 39 f8             	cmp    rax,rdi
    11a1:	74 15                	je     11b8 <atoi@plt+0x68>
    11a3:	48 8b 05 36 2e 00 00 	mov    rax,QWORD PTR [rip+0x2e36]        # 3fe0 <atoi@plt+0x2e90>
    11aa:	48 85 c0             	test   rax,rax
    11ad:	74 09                	je     11b8 <atoi@plt+0x68>
    11af:	ff e0                	jmp    rax
    11b1:	0f 1f 80 00 00 00 00 	nop    DWORD PTR [rax+0x0]
    11b8:	c3                   	ret    
    11b9:	0f 1f 80 00 00 00 00 	nop    DWORD PTR [rax+0x0]
    11c0:	48 8d 3d 49 2e 00 00 	lea    rdi,[rip+0x2e49]        # 4010 <atoi@plt+0x2ec0>
    11c7:	48 8d 35 42 2e 00 00 	lea    rsi,[rip+0x2e42]        # 4010 <atoi@plt+0x2ec0>
    11ce:	48 29 fe             	sub    rsi,rdi
    11d1:	48 89 f0             	mov    rax,rsi
    11d4:	48 c1 ee 3f          	shr    rsi,0x3f
    11d8:	48 c1 f8 03          	sar    rax,0x3
    11dc:	48 01 c6             	add    rsi,rax
    11df:	48 d1 fe             	sar    rsi,1
    11e2:	74 14                	je     11f8 <atoi@plt+0xa8>
    11e4:	48 8b 05 05 2e 00 00 	mov    rax,QWORD PTR [rip+0x2e05]        # 3ff0 <atoi@plt+0x2ea0>
    11eb:	48 85 c0             	test   rax,rax
    11ee:	74 08                	je     11f8 <atoi@plt+0xa8>
    11f0:	ff e0                	jmp    rax
    11f2:	66 0f 1f 44 00 00    	nop    WORD PTR [rax+rax*1+0x0]
    11f8:	c3                   	ret    
    11f9:	0f 1f 80 00 00 00 00 	nop    DWORD PTR [rax+0x0]
    1200:	f3 0f 1e fa          	endbr64 
    1204:	80 3d 3d 2e 00 00 00 	cmp    BYTE PTR [rip+0x2e3d],0x0        # 4048 <stderr@GLIBC_2.2.5+0x8>
    120b:	75 2b                	jne    1238 <atoi@plt+0xe8>
    120d:	55                   	push   rbp
    120e:	48 83 3d e2 2d 00 00 	cmp    QWORD PTR [rip+0x2de2],0x0        # 3ff8 <atoi@plt+0x2ea8>
    1215:	00 
    1216:	48 89 e5             	mov    rbp,rsp
    1219:	74 0c                	je     1227 <atoi@plt+0xd7>
    121b:	48 8b 3d e6 2d 00 00 	mov    rdi,QWORD PTR [rip+0x2de6]        # 4008 <atoi@plt+0x2eb8>
    1222:	e8 99 fe ff ff       	call   10c0 <__cxa_finalize@plt>
    1227:	e8 64 ff ff ff       	call   1190 <atoi@plt+0x40>
    122c:	c6 05 15 2e 00 00 01 	mov    BYTE PTR [rip+0x2e15],0x1        # 4048 <stderr@GLIBC_2.2.5+0x8>
    1233:	5d                   	pop    rbp
    1234:	c3                   	ret    
    1235:	0f 1f 00             	nop    DWORD PTR [rax]
    1238:	c3                   	ret    
    1239:	0f 1f 80 00 00 00 00 	nop    DWORD PTR [rax+0x0]
    1240:	f3 0f 1e fa          	endbr64 
    1244:	e9 77 ff ff ff       	jmp    11c0 <atoi@plt+0x70>
    1249:	f3 0f 1e fa          	endbr64 
    124d:	55                   	push   rbp
    124e:	48 89 e5             	mov    rbp,rsp
    1251:	48 83 ec 50          	sub    rsp,0x50
    1255:	64 48 8b 04 25 28 00 	mov    rax,QWORD PTR fs:0x28
    125c:	00 00 
    125e:	48 89 45 f8          	mov    QWORD PTR [rbp-0x8],rax
    1262:	31 c0                	xor    eax,eax
    1264:	48 b8 46 46 56 46 34 	movabs rax,0x33313446564646
    126b:	31 33 00 
    126e:	48 89 45 b8          	mov    QWORD PTR [rbp-0x48],rax
    1272:	48 b8 00 0a 17 01 4f 	movabs rax,0x526c644f01170a00
    1279:	64 6c 52 
    127c:	48 ba 19 71 3e 75 6b 	movabs rdx,0x35077c6b753e7119
    1283:	7c 07 35 
    1286:	48 89 45 c0          	mov    QWORD PTR [rbp-0x40],rax
    128a:	48 89 55 c8          	mov    QWORD PTR [rbp-0x38],rdx
    128e:	48 b8 32 75 04 19 5b 	movabs rax,0x676c575b19047532
    1295:	57 6c 67 
    1298:	48 ba 22 24 09 31 07 	movabs rdx,0x5f02000731092422
    129f:	00 02 5f 
    12a2:	48 89 45 d0          	mov    QWORD PTR [rbp-0x30],rax
    12a6:	48 89 55 d8          	mov    QWORD PTR [rbp-0x28],rdx
    12aa:	48 b8 22 76 38 23 6b 	movabs rax,0x5152616b23387622
    12b1:	61 52 51 
    12b4:	48 ba 3e 02 27 0a 51 	movabs rdx,0x545c7d510a27023e
    12bb:	7d 5c 54 
    12be:	48 89 45 e0          	mov    QWORD PTR [rbp-0x20],rax
    12c2:	48 89 55 e8          	mov    QWORD PTR [rbp-0x18],rdx
    12c6:	c7 45 f0 31 75 22 1e 	mov    DWORD PTR [rbp-0x10],0x1e227531
    12cd:	66 c7 45 f4 6e 4c    	mov    WORD PTR [rbp-0xc],0x4c6e
    12d3:	c6 45 f6 33          	mov    BYTE PTR [rbp-0xa],0x33
    12d7:	c7 45 b4 00 00 00 00 	mov    DWORD PTR [rbp-0x4c],0x0
    12de:	eb 27                	jmp    1307 <atoi@plt+0x1b7>
    12e0:	8b 45 b4             	mov    eax,DWORD PTR [rbp-0x4c]
    12e3:	48 98                	cdqe   
    12e5:	0f b6 54 05 c0       	movzx  edx,BYTE PTR [rbp+rax*1-0x40]
    12ea:	8b 45 b4             	mov    eax,DWORD PTR [rbp-0x4c]
    12ed:	48 98                	cdqe   
    12ef:	83 e0 07             	and    eax,0x7
    12f2:	0f b6 44 05 b8       	movzx  eax,BYTE PTR [rbp+rax*1-0x48]
    12f7:	31 d0                	xor    eax,edx
    12f9:	0f be c0             	movsx  eax,al
    12fc:	89 c7                	mov    edi,eax
    12fe:	e8 cd fd ff ff       	call   10d0 <putchar@plt>
    1303:	83 45 b4 01          	add    DWORD PTR [rbp-0x4c],0x1
    1307:	8b 45 b4             	mov    eax,DWORD PTR [rbp-0x4c]
    130a:	83 f8 36             	cmp    eax,0x36
    130d:	76 d1                	jbe    12e0 <atoi@plt+0x190>
    130f:	90                   	nop
    1310:	48 8b 45 f8          	mov    rax,QWORD PTR [rbp-0x8]
    1314:	64 48 2b 04 25 28 00 	sub    rax,QWORD PTR fs:0x28
    131b:	00 00 
    131d:	74 05                	je     1324 <atoi@plt+0x1d4>
    131f:	e8 cc fd ff ff       	call   10f0 <__stack_chk_fail@plt>
    1324:	c9                   	leave  
    1325:	c3                   	ret    
    1326:	f3 0f 1e fa          	endbr64 
    132a:	55                   	push   rbp
    132b:	48 89 e5             	mov    rbp,rsp
    132e:	48 83 c4 80          	add    rsp,0xffffffffffffff80
    1332:	89 7d 8c             	mov    DWORD PTR [rbp-0x74],edi
    1335:	64 48 8b 04 25 28 00 	mov    rax,QWORD PTR fs:0x28
    133c:	00 00 
    133e:	48 89 45 f8          	mov    QWORD PTR [rbp-0x8],rax
    1342:	31 c0                	xor    eax,eax
    1344:	81 7d 8c ef be ad de 	cmp    DWORD PTR [rbp-0x74],0xdeadbeef
    134b:	0f 85 05 01 00 00    	jne    1456 <atoi@plt+0x306>
    1351:	48 b8 41 35 41 5f 35 	movabs rax,0x415f41355f413541
    1358:	41 5f 41 
    135b:	48 89 45 a2          	mov    QWORD PTR [rbp-0x5e],rax
    135f:	c7 45 aa 35 35 35 4f 	mov    DWORD PTR [rbp-0x56],0x4f353535
    1366:	66 c7 45 ae 4f 00    	mov    WORD PTR [rbp-0x52],0x4f
    136c:	48 b8 07 79 00 18 4e 	movabs rax,0x346f384e18007907
    1373:	38 6f 34 
    1376:	48 ba 6a 67 50 2e 23 	movabs rdx,0x6a3831232e50676a
    137d:	31 38 6a 
    1380:	48 89 45 b0          	mov    QWORD PTR [rbp-0x50],rax
    1384:	48 89 55 b8          	mov    QWORD PTR [rbp-0x48],rdx
    1388:	48 b8 2a 31 5a 36 00 	movabs rax,0x79542200365a312a
    138f:	22 54 79 
    1392:	48 ba 59 26 21 67 1e 	movabs rdx,0x3171561e67212659
    1399:	56 71 31 
    139c:	48 89 45 c0          	mov    QWORD PTR [rbp-0x40],rax
    13a0:	48 89 55 c8          	mov    QWORD PTR [rbp-0x38],rdx
    13a4:	48 b8 43 24 31 35 5c 	movabs rax,0x105b5a5c35312443
    13ab:	5a 5b 10 
    13ae:	48 ba 1f 33 2e 44 07 	movabs rdx,0x35640e07442e331f
    13b5:	0e 64 35 
    13b8:	48 89 45 d0          	mov    QWORD PTR [rbp-0x30],rax
    13bc:	48 89 55 d8          	mov    QWORD PTR [rbp-0x28],rdx
    13c0:	48 b8 06 22 70 64 72 	movabs rax,0x453d777264702206
    13c7:	77 3d 45 
    13ca:	48 89 45 e0          	mov    QWORD PTR [rbp-0x20],rax
    13ce:	66 c7 45 e8 3c 35    	mov    WORD PTR [rbp-0x18],0x353c
    13d4:	48 8d 05 2d 0c 00 00 	lea    rax,[rip+0xc2d]        # 2008 <atoi@plt+0xeb8>
    13db:	48 89 c7             	mov    rdi,rax
    13de:	e8 fd fc ff ff       	call   10e0 <puts@plt>
    13e3:	c7 45 98 00 00 00 00 	mov    DWORD PTR [rbp-0x68],0x0
    13ea:	eb 4e                	jmp    143a <atoi@plt+0x2ea>
    13ec:	8b 45 98             	mov    eax,DWORD PTR [rbp-0x68]
    13ef:	48 98                	cdqe   
    13f1:	0f b6 74 05 b0       	movzx  esi,BYTE PTR [rbp+rax*1-0x50]
    13f6:	8b 45 98             	mov    eax,DWORD PTR [rbp-0x68]
    13f9:	48 63 c8             	movsxd rcx,eax
    13fc:	48 89 c8             	mov    rax,rcx
    13ff:	48 d1 e8             	shr    rax,1
    1402:	48 ba 25 49 92 24 49 	movabs rdx,0x4924924924924925
    1409:	92 24 49 
    140c:	48 f7 e2             	mul    rdx
    140f:	48 d1 ea             	shr    rdx,1
    1412:	48 89 d0             	mov    rax,rdx
    1415:	48 c1 e0 03          	shl    rax,0x3
    1419:	48 29 d0             	sub    rax,rdx
    141c:	48 01 c0             	add    rax,rax
    141f:	48 29 c1             	sub    rcx,rax
    1422:	48 89 ca             	mov    rdx,rcx
    1425:	0f b6 44 15 a2       	movzx  eax,BYTE PTR [rbp+rdx*1-0x5e]
    142a:	31 f0                	xor    eax,esi
    142c:	0f be c0             	movsx  eax,al
    142f:	89 c7                	mov    edi,eax
    1431:	e8 9a fc ff ff       	call   10d0 <putchar@plt>
    1436:	83 45 98 01          	add    DWORD PTR [rbp-0x68],0x1
    143a:	8b 45 98             	mov    eax,DWORD PTR [rbp-0x68]
    143d:	83 f8 39             	cmp    eax,0x39
    1440:	76 aa                	jbe    13ec <atoi@plt+0x29c>
    1442:	48 8d 05 d7 0b 00 00 	lea    rax,[rip+0xbd7]        # 2020 <atoi@plt+0xed0>
    1449:	48 89 c7             	mov    rdi,rax
    144c:	e8 8f fc ff ff       	call   10e0 <puts@plt>
    1451:	e9 f7 00 00 00       	jmp    154d <atoi@plt+0x3fd>
    1456:	48 8d 05 f3 0b 00 00 	lea    rax,[rip+0xbf3]        # 2050 <atoi@plt+0xf00>
    145d:	48 89 c7             	mov    rdi,rax
    1460:	e8 7b fc ff ff       	call   10e0 <puts@plt>
    1465:	48 b8 31 61 5f 31 61 	movabs rax,0x35615f61315f6131
    146c:	5f 61 35 
    146f:	48 89 45 a2          	mov    QWORD PTR [rbp-0x5e],rax
    1473:	c7 45 aa 35 35 6f 6f 	mov    DWORD PTR [rbp-0x56],0x6f6f3535
    147a:	c6 45 ae 00          	mov    BYTE PTR [rbp-0x52],0x0
    147e:	48 b8 77 2d 1e 76 1a 	movabs rax,0x50122a1a761e2d77
    1485:	2a 12 50 
    1488:	48 ba 6a 72 2b 2d 5f 	movabs rdx,0x51455f2d2b726a
    148f:	45 51 00 
    1492:	48 89 45 b0          	mov    QWORD PTR [rbp-0x50],rax
    1496:	48 89 55 b8          	mov    QWORD PTR [rbp-0x48],rdx
    149a:	48 b8 52 0e 31 15 47 	movabs rax,0x3004054715310e52
    14a1:	05 04 30 
    14a4:	48 ba 1f 72 5e 06 2d 	movabs rdx,0xc502d065e721f
    14ab:	50 0c 00 
    14ae:	48 89 45 c0          	mov    QWORD PTR [rbp-0x40],rax
    14b2:	48 89 55 c8          	mov    QWORD PTR [rbp-0x38],rdx
    14b6:	48 b8 28 00 6a 65 20 	movabs rax,0x74573820656a0028
    14bd:	38 57 74 
    14c0:	48 ba 07 2a 00 3e 0a 	movabs rdx,0x465a080a3e002a07
    14c7:	08 5a 46 
    14ca:	48 89 45 d0          	mov    QWORD PTR [rbp-0x30],rax
    14ce:	48 89 55 d8          	mov    QWORD PTR [rbp-0x28],rdx
    14d2:	48 b8 67 02 5e 78 7b 	movabs rax,0x73180f7b785e0267
    14d9:	0f 18 73 
    14dc:	48 89 45 e0          	mov    QWORD PTR [rbp-0x20],rax
    14e0:	c7 45 e8 51 0d 0f 4f 	mov    DWORD PTR [rbp-0x18],0x4f0f0d51
    14e7:	66 c7 45 ec 48 35    	mov    WORD PTR [rbp-0x14],0x3548
    14ed:	c7 45 9c 00 00 00 00 	mov    DWORD PTR [rbp-0x64],0x0
    14f4:	eb 4f                	jmp    1545 <atoi@plt+0x3f5>
    14f6:	8b 45 9c             	mov    eax,DWORD PTR [rbp-0x64]
    14f9:	48 98                	cdqe   
    14fb:	0f b6 74 05 b0       	movzx  esi,BYTE PTR [rbp+rax*1-0x50]
    1500:	8b 45 9c             	mov    eax,DWORD PTR [rbp-0x64]
    1503:	48 63 c8             	movsxd rcx,eax
    1506:	48 ba c5 4e ec c4 4e 	movabs rdx,0x4ec4ec4ec4ec4ec5
    150d:	ec c4 4e 
    1510:	48 89 c8             	mov    rax,rcx
    1513:	48 f7 e2             	mul    rdx
    1516:	48 c1 ea 02          	shr    rdx,0x2
    151a:	48 89 d0             	mov    rax,rdx
    151d:	48 01 c0             	add    rax,rax
    1520:	48 01 d0             	add    rax,rdx
    1523:	48 c1 e0 02          	shl    rax,0x2
    1527:	48 01 d0             	add    rax,rdx
    152a:	48 29 c1             	sub    rcx,rax
    152d:	48 89 ca             	mov    rdx,rcx
    1530:	0f b6 44 15 a2       	movzx  eax,BYTE PTR [rbp+rdx*1-0x5e]
    1535:	31 f0                	xor    eax,esi
    1537:	0f be c0             	movsx  eax,al
    153a:	89 c7                	mov    edi,eax
    153c:	e8 8f fb ff ff       	call   10d0 <putchar@plt>
    1541:	83 45 9c 01          	add    DWORD PTR [rbp-0x64],0x1
    1545:	8b 45 9c             	mov    eax,DWORD PTR [rbp-0x64]
    1548:	83 f8 3d             	cmp    eax,0x3d
    154b:	76 a9                	jbe    14f6 <atoi@plt+0x3a6>
    154d:	90                   	nop
    154e:	48 8b 45 f8          	mov    rax,QWORD PTR [rbp-0x8]
    1552:	64 48 2b 04 25 28 00 	sub    rax,QWORD PTR fs:0x28
    1559:	00 00 
    155b:	74 05                	je     1562 <atoi@plt+0x412>
    155d:	e8 8e fb ff ff       	call   10f0 <__stack_chk_fail@plt>
    1562:	c9                   	leave  
    1563:	c3                   	ret    
    1564:	f3 0f 1e fa          	endbr64 
    1568:	55                   	push   rbp
    1569:	48 89 e5             	mov    rbp,rsp
    156c:	48 83 ec 20          	sub    rsp,0x20
    1570:	64 48 8b 04 25 28 00 	mov    rax,QWORD PTR fs:0x28
    1577:	00 00 
    1579:	48 89 45 f8          	mov    QWORD PTR [rbp-0x8],rax
    157d:	31 c0                	xor    eax,eax
    157f:	48 8b 05 aa 2a 00 00 	mov    rax,QWORD PTR [rip+0x2aaa]        # 4030 <stdin@GLIBC_2.2.5>
    1586:	b9 00 00 00 00       	mov    ecx,0x0
    158b:	ba 02 00 00 00       	mov    edx,0x2
    1590:	be 00 00 00 00       	mov    esi,0x0
    1595:	48 89 c7             	mov    rdi,rax
    1598:	e8 93 fb ff ff       	call   1130 <setvbuf@plt>
    159d:	48 8b 05 7c 2a 00 00 	mov    rax,QWORD PTR [rip+0x2a7c]        # 4020 <stdout@GLIBC_2.2.5>
    15a4:	b9 00 00 00 00       	mov    ecx,0x0
    15a9:	ba 02 00 00 00       	mov    edx,0x2
    15ae:	be 00 00 00 00       	mov    esi,0x0
    15b3:	48 89 c7             	mov    rdi,rax
    15b6:	e8 75 fb ff ff       	call   1130 <setvbuf@plt>
    15bb:	48 8b 05 7e 2a 00 00 	mov    rax,QWORD PTR [rip+0x2a7e]        # 4040 <stderr@GLIBC_2.2.5>
    15c2:	b9 00 00 00 00       	mov    ecx,0x0
    15c7:	ba 02 00 00 00       	mov    edx,0x2
    15cc:	be 00 00 00 00       	mov    esi,0x0
    15d1:	48 89 c7             	mov    rdi,rax
    15d4:	e8 57 fb ff ff       	call   1130 <setvbuf@plt>
    15d9:	bf 0a 00 00 00       	mov    edi,0xa
    15de:	e8 2d fb ff ff       	call   1110 <alarm@plt>
    15e3:	be 00 00 00 00       	mov    esi,0x0
    15e8:	48 8d 05 72 0a 00 00 	lea    rax,[rip+0xa72]        # 2061 <atoi@plt+0xf11>
    15ef:	48 89 c7             	mov    rdi,rax
    15f2:	b8 00 00 00 00       	mov    eax,0x0
    15f7:	e8 44 fb ff ff       	call   1140 <open@plt>
    15fc:	89 45 e8             	mov    DWORD PTR [rbp-0x18],eax
    15ff:	48 8d 05 68 0a 00 00 	lea    rax,[rip+0xa68]        # 206e <atoi@plt+0xf1e>
    1606:	48 89 c7             	mov    rdi,rax
    1609:	b8 00 00 00 00       	mov    eax,0x0
    160e:	e8 ed fa ff ff       	call   1100 <printf@plt>
    1613:	48 8d 4d f0          	lea    rcx,[rbp-0x10]
    1617:	8b 45 e8             	mov    eax,DWORD PTR [rbp-0x18]
    161a:	ba 04 00 00 00       	mov    edx,0x4
    161f:	48 89 ce             	mov    rsi,rcx
    1622:	89 c7                	mov    edi,eax
    1624:	e8 f7 fa ff ff       	call   1120 <read@plt>
    1629:	48 8d 45 f0          	lea    rax,[rbp-0x10]
    162d:	8b 00                	mov    eax,DWORD PTR [rax]
    162f:	89 45 ec             	mov    DWORD PTR [rbp-0x14],eax
    1632:	48 8d 45 f4          	lea    rax,[rbp-0xc]
    1636:	ba 04 00 00 00       	mov    edx,0x4
    163b:	48 89 c6             	mov    rsi,rax
    163e:	bf 00 00 00 00       	mov    edi,0x0
    1643:	e8 d8 fa ff ff       	call   1120 <read@plt>
    1648:	48 8d 45 f4          	lea    rax,[rbp-0xc]
    164c:	48 89 c7             	mov    rdi,rax
    164f:	e8 fc fa ff ff       	call   1150 <atoi@plt>
    1654:	39 45 ec             	cmp    DWORD PTR [rbp-0x14],eax
    1657:	75 0c                	jne    1665 <atoi@plt+0x515>
    1659:	bf 37 13 00 00       	mov    edi,0x1337
    165e:	e8 c3 fc ff ff       	call   1326 <atoi@plt+0x1d6>
    1663:	eb 0f                	jmp    1674 <atoi@plt+0x524>
    1665:	48 8d 05 1c 0a 00 00 	lea    rax,[rip+0xa1c]        # 2088 <atoi@plt+0xf38>
    166c:	48 89 c7             	mov    rdi,rax
    166f:	e8 6c fa ff ff       	call   10e0 <puts@plt>
    1674:	b8 00 00 00 00       	mov    eax,0x0
    1679:	48 8b 55 f8          	mov    rdx,QWORD PTR [rbp-0x8]
    167d:	64 48 2b 14 25 28 00 	sub    rdx,QWORD PTR fs:0x28
    1684:	00 00 
    1686:	74 05                	je     168d <atoi@plt+0x53d>
    1688:	e8 63 fa ff ff       	call   10f0 <__stack_chk_fail@plt>
    168d:	c9                   	leave  
    168e:	c3                   	ret    

Disassembly of section .fini:

0000000000001690 <.fini>:
    1690:	f3 0f 1e fa          	endbr64 
    1694:	48 83 ec 08          	sub    rsp,0x8
    1698:	48 83 c4 08          	add    rsp,0x8
    169c:	c3                   	ret    
